target datalayout = "e-m:e-p270:32:32-p271:32:32-p272:64:64-i64:64-i128:128-f80:128-n8:16:32:64-S128"
target triple = "x86_64-pc-linux-gnu"

; Function Attrs: mustprogress nounwind uwtable
define noundef zeroext i1 @_ZN7rocksdb13isSpecialCharEc(i8 noundef signext %0) #2 {
  %2 = alloca i1, align 1
  %3 = alloca i8, align 1
  store i8 %0, ptr %3, align 1, !tbaa !15
  %4 = load i8, ptr %3, align 1, !tbaa !15
  %5 = sext i8 %4 to i32
  %6 = icmp eq i32 %5, 92
  br i1 %6, label %23, label %7

7:                                                ; preds = %1
  %8 = load i8, ptr %3, align 1, !tbaa !15
  %9 = sext i8 %8 to i32
  %10 = icmp eq i32 %9, 35
  br i1 %10, label %23, label %11

11:                                               ; preds = %7
  %12 = load i8, ptr %3, align 1, !tbaa !15
  %13 = sext i8 %12 to i32
  %14 = icmp eq i32 %13, 58
  br i1 %14, label %23, label %15

15:                                               ; preds = %11
  %16 = load i8, ptr %3, align 1, !tbaa !15
  %17 = sext i8 %16 to i32
  %18 = icmp eq i32 %17, 13
  br i1 %18, label %23, label %19

19:                                               ; preds = %15
  %20 = load i8, ptr %3, align 1, !tbaa !15
  %21 = sext i8 %20 to i32
  %22 = icmp eq i32 %21, 10
  br i1 %22, label %23, label %24

23:                                               ; preds = %19, %15, %11, %7, %1
  store i1 true, ptr %2, align 1
  br label %25

24:                                               ; preds = %19
  store i1 false, ptr %2, align 1
  br label %25

25:                                               ; preds = %24, %23
  %26 = load i1, ptr %2, align 1
  ret i1 %26
}