; Function Attrs: mustprogress nofree norecurse nosync nounwind willreturn memory(none) uwtable
define noundef zeroext i1 @_ZN7rocksdb13isSpecialCharEc(i8 noundef signext %0) local_unnamed_addr #10 {
  %2 = icmp eq i8 %0, 92
  %3 = icmp eq i8 %0, 35
  %or.cond = or i1 %2, %3
  %4 = icmp eq i8 %0, 58
  %or.cond5 = or i1 %4, %or.cond
  %5 = icmp eq i8 %0, 13
  %or.cond8 = or i1 %5, %or.cond5
  %6 = icmp eq i8 %0, 10
  %or.cond11 = or i1 %6, %or.cond8
  ret i1 %or.cond11
}